target datalayout = "e-m:e-p270:32:32-p271:32:32-p272:64:64-i64:64-i128:128-f80:128-n8:16:32:64-S128"
target triple = "x86_64-pc-linux-gnu"

%"class.vcg::Matrix44" = type { %"struct.std::array" }
%"struct.std::array" = type { [16 x float] }
%class.QString = type { ptr }
%class.EditReferencingPlugin = type { %class.QObject, %class.EditTool, %class.QPoint, %class.QFont, ptr, ptr, i32, %"class.std::vector.16", %"class.vcg::Matrix44", %"class.std::vector.21", %"class.std::vector.25", %"class.std::vector.30", %"class.std::vector.30", %"class.std::vector.35", %"class.std::vector.21", %"class.std::vector.25", %"class.std::vector.30", %"class.std::vector.30", %"class.std::vector.35", %"class.std::vector.35", %"class.std::vector.35", %"class.std::vector.35", double, %"class.vcg::Matrix44.40", i32, i32, i8, i8, %class.QString, %class.QString, %class.QString, %class.QString, %class.QString }
%class.QObject = type { ptr, %class.QScopedPointer }
%class.QScopedPointer = type { ptr }
%class.EditTool = type { %class.MeshLabPluginLogger }
%class.MeshLabPluginLogger = type { ptr, ptr }
%class.QPoint = type { i32, i32 }
%class.QFont = type <{ %class.QExplicitlySharedDataPointer, i32, [4 x i8] }>
%class.QExplicitlySharedDataPointer = type { ptr }
%"class.std::vector.16" = type { %"struct.std::_Vector_base.17" }
%"struct.std::_Vector_base.17" = type { %"struct.std::_Vector_base<vcg::Matrix44<float>, std::allocator<vcg::Matrix44<float>>>::_Vector_impl" }
%"struct.std::_Vector_base<vcg::Matrix44<float>, std::allocator<vcg::Matrix44<float>>>::_Vector_impl" = type { %"struct.std::_Vector_base<vcg::Matrix44<float>, std::allocator<vcg::Matrix44<float>>>::_Vector_impl_data" }
%"struct.std::_Vector_base<vcg::Matrix44<float>, std::allocator<vcg::Matrix44<float>>>::_Vector_impl_data" = type { ptr, ptr, ptr }
%"class.std::vector.21" = type { %"struct.std::_Bvector_base" }
%"struct.std::_Bvector_base" = type { %"struct.std::_Bvector_base<std::allocator<bool>>::_Bvector_impl" }
%"struct.std::_Bvector_base<std::allocator<bool>>::_Bvector_impl" = type { %"struct.std::_Bvector_base<std::allocator<bool>>::_Bvector_impl_data" }
%"struct.std::_Bvector_base<std::allocator<bool>>::_Bvector_impl_data" = type { %"struct.std::_Bit_iterator", %"struct.std::_Bit_iterator", ptr }
%"struct.std::_Bit_iterator" = type { %"struct.std::_Bit_iterator_base.base", [4 x i8] }
%"struct.std::_Bit_iterator_base.base" = type <{ ptr, i32 }>
%"class.std::vector.25" = type { %"struct.std::_Vector_base.26" }
%"struct.std::_Vector_base.26" = type { %"struct.std::_Vector_base<QString, std::allocator<QString>>::_Vector_impl" }
%"struct.std::_Vector_base<QString, std::allocator<QString>>::_Vector_impl" = type { %"struct.std::_Vector_base<QString, std::allocator<QString>>::_Vector_impl_data" }
%"struct.std::_Vector_base<QString, std::allocator<QString>>::_Vector_impl_data" = type { ptr, ptr, ptr }
%"class.std::vector.30" = type { %"struct.std::_Vector_base.31" }
%"struct.std::_Vector_base.31" = type { %"struct.std::_Vector_base<vcg::Point3<double>, std::allocator<vcg::Point3<double>>>::_Vector_impl" }
%"struct.std::_Vector_base<vcg::Point3<double>, std::allocator<vcg::Point3<double>>>::_Vector_impl" = type { %"struct.std::_Vector_base<vcg::Point3<double>, std::allocator<vcg::Point3<double>>>::_Vector_impl_data" }
%"struct.std::_Vector_base<vcg::Point3<double>, std::allocator<vcg::Point3<double>>>::_Vector_impl_data" = type { ptr, ptr, ptr }
%"class.std::vector.35" = type { %"struct.std::_Vector_base.36" }
%"struct.std::_Vector_base.36" = type { %"struct.std::_Vector_base<double, std::allocator<double>>::_Vector_impl" }
%"struct.std::_Vector_base<double, std::allocator<double>>::_Vector_impl" = type { %"struct.std::_Vector_base<double, std::allocator<double>>::_Vector_impl_data" }
%"struct.std::_Vector_base<double, std::allocator<double>>::_Vector_impl_data" = type { ptr, ptr, ptr }
%"class.vcg::Matrix44.40" = type { %"struct.std::array.41" }
%"struct.std::array.41" = type { [16 x double] }

; Function Attrs: mustprogress uwtable
define void @_ZN21EditReferencingPlugin8decorateER9MeshModelP6GLAreaP8QPainter(ptr noundef nonnull align 8 dereferenceable(704) %0, ptr noundef nonnull align 8 dereferenceable(1288) %1, ptr noundef %2, ptr noundef %3) unnamed_addr #5 align 2 {
  %5 = alloca ptr, align 8
  %6 = alloca ptr, align 8
  %7 = alloca ptr, align 8
  %8 = alloca ptr, align 8
  store ptr %0, ptr %5, align 8
  store ptr %1, ptr %6, align 8
  store ptr %2, ptr %7, align 8
  store ptr %3, ptr %8, align 8
  %9 = load ptr, ptr %5, align 8
  %10 = getelementptr inbounds %class.EditReferencingPlugin, ptr %9, i32 0, i32 6
  %11 = load i32, ptr %10, align 8
  %12 = icmp eq i32 %11, 0
  br i1 %12, label %13, label %17

13:                                               ; preds = %4
  %14 = load ptr, ptr %6, align 8
  %15 = load ptr, ptr %7, align 8
  %16 = load ptr, ptr %8, align 8
  call void @_ZN21EditReferencingPlugin16DecorateAbsoluteER9MeshModelP6GLAreaP8QPainter(ptr noundef nonnull align 8 dereferenceable(704) %9, ptr noundef nonnull align 8 dereferenceable(1288) %14, ptr noundef %15, ptr noundef %16)
  br label %26

17:                                               ; preds = %4
  %18 = getelementptr inbounds %class.EditReferencingPlugin, ptr %9, i32 0, i32 6
  %19 = load i32, ptr %18, align 8
  %20 = icmp eq i32 %19, 1
  br i1 %20, label %21, label %25

21:                                               ; preds = %17
  %22 = load ptr, ptr %6, align 8
  %23 = load ptr, ptr %7, align 8
  %24 = load ptr, ptr %8, align 8
  call void @_ZN21EditReferencingPlugin13DecorateScaleER9MeshModelP6GLAreaP8QPainter(ptr noundef nonnull align 8 dereferenceable(704) %9, ptr noundef nonnull align 8 dereferenceable(1288) %22, ptr noundef %23, ptr noundef %24)
  br label %25

25:                                               ; preds = %21, %17
  br label %26

26:                                               ; preds = %25, %13
  ret void
}

; Function Attrs: uwtable
define void @_ZThn16_N21EditReferencingPlugin8decorateER9MeshModelP6GLAreaP8QPainter(ptr noundef %0, ptr noundef nonnull align 8 dereferenceable(1288) %1, ptr noundef %2, ptr noundef %3) unnamed_addr #0 align 2 {
  %5 = alloca ptr, align 8
  %6 = alloca ptr, align 8
  %7 = alloca ptr, align 8
  %8 = alloca ptr, align 8
  store ptr %0, ptr %5, align 8
  store ptr %1, ptr %6, align 8
  store ptr %2, ptr %7, align 8
  store ptr %3, ptr %8, align 8
  %9 = load ptr, ptr %5, align 8
  %10 = getelementptr inbounds i8, ptr %9, i64 -16
  %11 = load ptr, ptr %6, align 8
  %12 = load ptr, ptr %7, align 8
  %13 = load ptr, ptr %8, align 8
  tail call void @_ZN21EditReferencingPlugin8decorateER9MeshModelP6GLAreaP8QPainter(ptr noundef nonnull align 8 dereferenceable(704) %10, ptr noundef nonnull align 8 dereferenceable(1288) %11, ptr noundef %12, ptr noundef %13)
  ret void
}