; Function Attrs: uwtable
define void @_ZThn16_N21EditReferencingPlugin8decorateER9MeshModelP6GLAreaP8QPainter(ptr noundef %0, ptr noundef nonnull align 8 dereferenceable(1288) %1, ptr nocapture noundef readnone %2, ptr noundef %3) unnamed_addr #12 align 2 {
  %5 = getelementptr inbounds i8, ptr %0, i64 -16
  %6 = getelementptr inbounds i8, ptr %0, i64 56
  %7 = load i32, ptr %6, align 8
  switch i32 %7, label %_ZN21EditReferencingPlugin8decorateER9MeshModelP6GLAreaP8QPainter.exit [
    i32 0, label %8
    i32 1, label %9
  ]

8:                                                ; preds = %4
  tail call void @_ZN21EditReferencingPlugin16DecorateAbsoluteER9MeshModelP6GLAreaP8QPainter(ptr noundef nonnull align 8 dereferenceable(704) %5, ptr noundef nonnull align 8 dereferenceable(1288) %1, ptr poison, ptr noundef %3)
  br label %_ZN21EditReferencingPlugin8decorateER9MeshModelP6GLAreaP8QPainter.exit

9:                                                ; preds = %4
  tail call void @_ZN21EditReferencingPlugin13DecorateScaleER9MeshModelP6GLAreaP8QPainter(ptr noundef nonnull align 8 dereferenceable(704) %5, ptr noundef nonnull align 8 dereferenceable(1288) %1, ptr poison, ptr noundef %3)
  br label %_ZN21EditReferencingPlugin8decorateER9MeshModelP6GLAreaP8QPainter.exit

_ZN21EditReferencingPlugin8decorateER9MeshModelP6GLAreaP8QPainter.exit: ; preds = %4, %8, %9
  ret void
}